target datalayout = "e-m:e-p270:32:32-p271:32:32-p272:64:64-i64:64-i128:128-f80:128-n8:16:32:64-S128"
target triple = "x86_64-pc-linux-gnu"

; Function Attrs: nounwind sspstrong uwtable
define internal void @add_modules(ptr noundef %0, ptr noundef %1) #0 {
  %3 = alloca ptr, align 8
  %4 = alloca ptr, align 8
  %5 = alloca i64, align 8
  %6 = alloca i64, align 8
  store ptr %0, ptr %3, align 8, !tbaa !72
  store ptr %1, ptr %4, align 8, !tbaa !7
  call void @llvm.lifetime.start.p0(i64 8, ptr %5) #24
  %7 = load ptr, ptr %3, align 8, !tbaa !72
  %8 = load i64, ptr %7, align 8, !tbaa !42
  store i64 %8, ptr %5, align 8, !tbaa !42
  call void @llvm.lifetime.start.p0(i64 8, ptr %6) #24
  %9 = load i64, ptr %5, align 8, !tbaa !42
  %10 = icmp ne i64 %9, 0
  br i1 %10, label %14, label %11

11:                                               ; preds = %2
  %12 = call i64 @rb_ary_hidden_new(i64 noundef 0)
  store i64 %12, ptr %5, align 8, !tbaa !42
  %13 = load ptr, ptr %3, align 8, !tbaa !72
  store i64 %12, ptr %13, align 8, !tbaa !42
  br label %14

14:                                               ; preds = %11, %2
  %15 = call i64 @rb_str_tmp_new(i64 noundef 0)
  %16 = load ptr, ptr %4, align 8, !tbaa !7
  %17 = call i64 @rb_str_cat_cstr(i64 noundef %15, ptr noundef %16)
  store i64 %17, ptr %6, align 8, !tbaa !42
  %18 = load i64, ptr %5, align 8, !tbaa !42
  %19 = load i64, ptr %6, align 8, !tbaa !42
  %20 = call i64 @rb_ary_push(i64 noundef %18, i64 noundef %19)
  call void @llvm.lifetime.end.p0(i64 8, ptr %6) #24
  call void @llvm.lifetime.end.p0(i64 8, ptr %5) #24
  ret void
}