; Function Attrs: nounwind sspstrong uwtable
define internal fastcc void @add_modules(ptr noundef captures(none) %0, ptr noundef %1) unnamed_addr #0 {
  %3 = load i64, ptr %0, align 8, !tbaa !47
  %.not = icmp eq i64 %3, 0
  br i1 %.not, label %4, label %6

4:                                                ; preds = %2
  %5 = tail call i64 @rb_ary_hidden_new(i64 noundef 0) #25
  store i64 %5, ptr %0, align 8, !tbaa !47
  br label %6

6:                                                ; preds = %4, %2
  %.0 = phi i64 [ %3, %2 ], [ %5, %4 ]
  %7 = tail call i64 @rb_str_tmp_new(i64 noundef 0) #25
  %8 = tail call i64 @rb_str_cat_cstr(i64 noundef %7, ptr noundef %1) #25
  %9 = tail call i64 @rb_ary_push(i64 noundef %.0, i64 noundef %8) #25
  ret void
}